; Function Attrs: nounwind uwtable
define void @Bac_ManWriteBlifGate(ptr noundef captures(none) %0, ptr noundef readonly captures(none) %1, ptr noundef %2, ptr noundef readonly captures(none) %3, i32 noundef %4) local_unnamed_addr #0 {
  %6 = getelementptr i8, ptr %3, i64 4
  %.val24 = load i32, ptr %6, align 4, !tbaa !17
  %7 = icmp sgt i32 %.val24, 0
  br i1 %7, label %.lr.ph, label %.critedge

.lr.ph:                                           ; preds = %5
  %8 = getelementptr i8, ptr %3, i64 8
  %9 = getelementptr i8, ptr %1, i64 88
  %10 = getelementptr i8, ptr %1, i64 136
  %11 = getelementptr i8, ptr %1, i64 104
  br label %12

12:                                               ; preds = %.lr.ph, %Bac_ObjNameStr.exit
  %indvars.iv = phi i64 [ 0, %.lr.ph ], [ %indvars.iv.next, %Bac_ObjNameStr.exit ]
  %.val14 = load ptr, ptr %8, align 8, !tbaa !18
  %13 = getelementptr inbounds nuw i32, ptr %.val14, i64 %indvars.iv
  %14 = load i32, ptr %13, align 4, !tbaa !19
  %15 = trunc nuw nsw i64 %indvars.iv to i32
  %16 = tail call ptr @Mio_GateReadPinName(ptr noundef %2, i32 noundef %15) #5
  %.val.i.i.i = load ptr, ptr %9, align 8, !tbaa !26
  %17 = sext i32 %14 to i64
  %18 = getelementptr inbounds i8, ptr %.val.i.i.i, i64 %17
  %19 = load i8, ptr %18, align 1, !tbaa !29
  %20 = and i8 %19, -4
  %narrow.i.not.i.i.i = icmp eq i8 %20, 4
  br i1 %narrow.i.not.i.i.i, label %21, label %26

21:                                               ; preds = %12
  %.val6.i.i.i = load ptr, ptr %11, align 8, !tbaa !18
  %22 = getelementptr inbounds i32, ptr %.val6.i.i.i, i64 %17
  %23 = load i32, ptr %22, align 4, !tbaa !19
  %.val7.i.i.i = load ptr, ptr %10, align 8, !tbaa !18
  %24 = sext i32 %23 to i64
  %25 = getelementptr inbounds i32, ptr %.val7.i.i.i, i64 %24
  br label %Bac_ObjNameStr.exit

26:                                               ; preds = %12
  %.val8.i.i.i = load ptr, ptr %10, align 8, !tbaa !18
  %27 = getelementptr inbounds i32, ptr %.val8.i.i.i, i64 %17
  br label %Bac_ObjNameStr.exit

Bac_ObjNameStr.exit:                              ; preds = %21, %26
  %.in.i.i.i = phi ptr [ %25, %21 ], [ %27, %26 ]
  %28 = load i32, ptr %.in.i.i.i, align 4, !tbaa !19
  %29 = ashr i32 %28, 2
  %.val.i = load ptr, ptr %1, align 8, !tbaa !30
  %30 = getelementptr i8, ptr %.val.i, i64 16
  %.val.val.i = load ptr, ptr %30, align 8, !tbaa !33
  %31 = tail call ptr @Abc_NamStr(ptr noundef %.val.val.i, i32 noundef range(i32 -536870912, 536870912) %29) #5
  %32 = tail call i32 (ptr, ptr, ...) @fprintf(ptr noundef %0, ptr noundef nonnull @.str.3, ptr noundef %16, ptr noundef %31) #5
  %indvars.iv.next = add nuw nsw i64 %indvars.iv, 1
  %.val = load i32, ptr %6, align 4, !tbaa !17
  %33 = sext i32 %.val to i64
  %34 = icmp slt i64 %indvars.iv.next, %33
  br i1 %34, label %12, label %.critedge, !llvm.loop !37

.critedge:                                        ; preds = %Bac_ObjNameStr.exit, %5
  %35 = tail call ptr @Mio_GateReadOutName(ptr noundef %2) #5
  %36 = getelementptr i8, ptr %1, i64 88
  %.val.i.i.i15 = load ptr, ptr %36, align 8, !tbaa !26
  %37 = sext i32 %4 to i64
  %38 = getelementptr inbounds i8, ptr %.val.i.i.i15, i64 %37
  %39 = load i8, ptr %38, align 1, !tbaa !29
  %40 = and i8 %39, -4
  %narrow.i.not.i.i.i16 = icmp eq i8 %40, 4
  br i1 %narrow.i.not.i.i.i16, label %41, label %48

41:                                               ; preds = %.critedge
  %42 = getelementptr i8, ptr %1, i64 104
  %.val6.i.i.i21 = load ptr, ptr %42, align 8, !tbaa !18
  %43 = getelementptr inbounds i32, ptr %.val6.i.i.i21, i64 %37
  %44 = load i32, ptr %43, align 4, !tbaa !19
  %45 = getelementptr i8, ptr %1, i64 136
  %.val7.i.i.i22 = load ptr, ptr %45, align 8, !tbaa !18
  %46 = sext i32 %44 to i64
  %47 = getelementptr inbounds i32, ptr %.val7.i.i.i22, i64 %46
  br label %Bac_ObjNameStr.exit23

48:                                               ; preds = %.critedge
  %49 = getelementptr i8, ptr %1, i64 136
  %.val8.i.i.i17 = load ptr, ptr %49, align 8, !tbaa !18
  %50 = getelementptr inbounds i32, ptr %.val8.i.i.i17, i64 %37
  br label %Bac_ObjNameStr.exit23

Bac_ObjNameStr.exit23:                            ; preds = %41, %48
  %.in.i.i.i18 = phi ptr [ %47, %41 ], [ %50, %48 ]
  %51 = load i32, ptr %.in.i.i.i18, align 4, !tbaa !19
  %52 = ashr i32 %51, 2
  %.val.i19 = load ptr, ptr %1, align 8, !tbaa !30
  %53 = getelementptr i8, ptr %.val.i19, i64 16
  %.val.val.i20 = load ptr, ptr %53, align 8, !tbaa !33
  %54 = tail call ptr @Abc_NamStr(ptr noundef %.val.val.i20, i32 noundef range(i32 -536870912, 536870912) %52) #5
  %55 = tail call i32 (ptr, ptr, ...) @fprintf(ptr noundef %0, ptr noundef nonnull @.str.3, ptr noundef %35, ptr noundef %54) #5
  %fputc = tail call i32 @fputc(i32 10, ptr %0)
  ret void
}